target datalayout = "e-m:e-p270:32:32-p271:32:32-p272:64:64-i64:64-i128:128-f80:128-n8:16:32:64-S128"
target triple = "x86_64-pc-linux-gnu"

%struct.DdManager = type { %struct.DdNode, ptr, ptr, ptr, ptr, ptr, ptr, ptr, i32, i32, double, double, double, i32, i32, i32, i32, i32, i32, ptr, ptr, %struct.DdSubtable, i32, i32, i32, i32, i32, i32, i32, double, i32, i32, i32, ptr, i64, double, i32, ptr, ptr, ptr, ptr, ptr, ptr, ptr, i32, ptr, ptr, ptr, ptr, ptr, ptr, i32, i32, i32, double, i32, i32, i32, i32, double, double, i32, i32, i32, i32, i32, i32, i32, i32, i32, ptr, ptr, i32, i32, i32, i32, i32, i32, ptr, ptr, ptr, ptr, ptr, ptr, ptr, ptr, i32, i64, i64, i64, i32, i64, i64, double, double, double, double, double, double, i32, ptr, ptr, i64 }
%struct.DdNode = type { i32, i32, ptr, %union.anon, i64 }
%union.anon = type { %struct.DdChildren }
%struct.DdChildren = type { ptr, ptr }
%struct.DdSubtable = type { ptr, i32, i32, i32, i32, i32, i32, i32, i32, i32, i32, i32 }

; Function Attrs: nounwind uwtable
define ptr @Cudd_addIthVar(ptr noundef %0, i32 noundef %1) #0 {
  %3 = alloca ptr, align 8
  %4 = alloca ptr, align 8
  %5 = alloca i32, align 4
  %6 = alloca ptr, align 8
  store ptr %0, ptr %4, align 8
  store i32 %1, ptr %5, align 4
  %7 = load i32, ptr %5, align 4
  %8 = icmp uge i32 %7, 2147483646
  br i1 %8, label %9, label %10

9:                                                ; preds = %2
  store ptr null, ptr %3, align 8
  br label %30

10:                                               ; preds = %2
  br label %11

11:                                               ; preds = %23, %10
  %12 = load ptr, ptr %4, align 8
  %13 = getelementptr inbounds %struct.DdManager, ptr %12, i32 0, i32 55
  store i32 0, ptr %13, align 8
  %14 = load ptr, ptr %4, align 8
  %15 = load i32, ptr %5, align 4
  %16 = load ptr, ptr %4, align 8
  %17 = getelementptr inbounds %struct.DdManager, ptr %16, i32 0, i32 1
  %18 = load ptr, ptr %17, align 8
  %19 = load ptr, ptr %4, align 8
  %20 = getelementptr inbounds %struct.DdManager, ptr %19, i32 0, i32 2
  %21 = load ptr, ptr %20, align 8
  %22 = call ptr @cuddUniqueInter(ptr noundef %14, i32 noundef %15, ptr noundef %18, ptr noundef %21)
  store ptr %22, ptr %6, align 8
  br label %23

23:                                               ; preds = %11
  %24 = load ptr, ptr %4, align 8
  %25 = getelementptr inbounds %struct.DdManager, ptr %24, i32 0, i32 55
  %26 = load i32, ptr %25, align 8
  %27 = icmp eq i32 %26, 1
  br i1 %27, label %11, label %28, !llvm.loop !7

28:                                               ; preds = %23
  %29 = load ptr, ptr %6, align 8
  store ptr %29, ptr %3, align 8
  br label %30

30:                                               ; preds = %28, %9
  %31 = load ptr, ptr %3, align 8
  ret ptr %31
}

; Function Attrs: nounwind uwtable
define ptr @Cudd_addNewVarAtLevel(ptr noundef %0, i32 noundef %1) #0 {
  %3 = alloca ptr, align 8
  %4 = alloca ptr, align 8
  %5 = alloca i32, align 4
  %6 = alloca ptr, align 8
  store ptr %0, ptr %4, align 8
  store i32 %1, ptr %5, align 4
  %7 = load ptr, ptr %4, align 8
  %8 = getelementptr inbounds %struct.DdManager, ptr %7, i32 0, i32 15
  %9 = load i32, ptr %8, align 8
  %10 = icmp uge i32 %9, 2147483646
  br i1 %10, label %11, label %12

11:                                               ; preds = %2
  store ptr null, ptr %3, align 8
  br label %51

12:                                               ; preds = %2
  %13 = load i32, ptr %5, align 4
  %14 = load ptr, ptr %4, align 8
  %15 = getelementptr inbounds %struct.DdManager, ptr %14, i32 0, i32 15
  %16 = load i32, ptr %15, align 8
  %17 = icmp sge i32 %13, %16
  br i1 %17, label %18, label %22

18:                                               ; preds = %12
  %19 = load ptr, ptr %4, align 8
  %20 = load i32, ptr %5, align 4
  %21 = call ptr @Cudd_addIthVar(ptr noundef %19, i32 noundef %20)
  store ptr %21, ptr %3, align 8
  br label %51

22:                                               ; preds = %12
  %23 = load ptr, ptr %4, align 8
  %24 = load i32, ptr %5, align 4
  %25 = call i32 @cuddInsertSubtables(ptr noundef %23, i32 noundef 1, i32 noundef %24)
  %26 = icmp ne i32 %25, 0
  br i1 %26, label %28, label %27

27:                                               ; preds = %22
  store ptr null, ptr %3, align 8
  br label %51

28:                                               ; preds = %22
  br label %29

29:                                               ; preds = %44, %28
  %30 = load ptr, ptr %4, align 8
  %31 = getelementptr inbounds %struct.DdManager, ptr %30, i32 0, i32 55
  store i32 0, ptr %31, align 8
  %32 = load ptr, ptr %4, align 8
  %33 = load ptr, ptr %4, align 8
  %34 = getelementptr inbounds %struct.DdManager, ptr %33, i32 0, i32 15
  %35 = load i32, ptr %34, align 8
  %36 = sub nsw i32 %35, 1
  %37 = load ptr, ptr %4, align 8
  %38 = getelementptr inbounds %struct.DdManager, ptr %37, i32 0, i32 1
  %39 = load ptr, ptr %38, align 8
  %40 = load ptr, ptr %4, align 8
  %41 = getelementptr inbounds %struct.DdManager, ptr %40, i32 0, i32 2
  %42 = load ptr, ptr %41, align 8
  %43 = call ptr @cuddUniqueInter(ptr noundef %32, i32 noundef %36, ptr noundef %39, ptr noundef %42)
  store ptr %43, ptr %6, align 8
  br label %44

44:                                               ; preds = %29
  %45 = load ptr, ptr %4, align 8
  %46 = getelementptr inbounds %struct.DdManager, ptr %45, i32 0, i32 55
  %47 = load i32, ptr %46, align 8
  %48 = icmp eq i32 %47, 1
  br i1 %48, label %29, label %49, !llvm.loop !6

49:                                               ; preds = %44
  %50 = load ptr, ptr %6, align 8
  store ptr %50, ptr %3, align 8
  br label %51

51:                                               ; preds = %49, %27, %18, %11
  %52 = load ptr, ptr %3, align 8
  ret ptr %52
}