; Function Attrs: nounwind uwtable
define ptr @Cudd_addNewVarAtLevel(ptr noundef %0, i32 noundef %1) local_unnamed_addr #0 {
  %3 = getelementptr inbounds nuw i8, ptr %0, i64 136
  %4 = load i32, ptr %3, align 8
  %5 = icmp ugt i32 %4, 2147483645
  br i1 %5, label %Cudd_addIthVar.exit, label %6

6:                                                ; preds = %2
  %.not = icmp slt i32 %1, %4
  br i1 %.not, label %18, label %7

7:                                                ; preds = %6
  %8 = icmp samesign ugt i32 %1, 2147483645
  br i1 %8, label %Cudd_addIthVar.exit, label %.preheader.i

.preheader.i:                                     ; preds = %7
  %9 = getelementptr inbounds nuw i8, ptr %0, i64 448
  %10 = getelementptr inbounds nuw i8, ptr %0, i64 40
  %11 = getelementptr inbounds nuw i8, ptr %0, i64 48
  br label %12

12:                                               ; preds = %12, %.preheader.i
  store i32 0, ptr %9, align 8
  %13 = load ptr, ptr %10, align 8
  %14 = load ptr, ptr %11, align 8
  %15 = tail call ptr @cuddUniqueInter(ptr noundef nonnull %0, i32 noundef %1, ptr noundef %13, ptr noundef %14) #20
  %16 = load i32, ptr %9, align 8
  %17 = icmp eq i32 %16, 1
  br i1 %17, label %12, label %Cudd_addIthVar.exit, !llvm.loop !6

18:                                               ; preds = %6
  %19 = tail call i32 @cuddInsertSubtables(ptr noundef nonnull %0, i32 noundef 1, i32 noundef %1) #20
  %.not16 = icmp eq i32 %19, 0
  br i1 %.not16, label %Cudd_addIthVar.exit, label %.preheader

.preheader:                                       ; preds = %18
  %20 = getelementptr inbounds nuw i8, ptr %0, i64 448
  %21 = getelementptr inbounds nuw i8, ptr %0, i64 40
  %22 = getelementptr inbounds nuw i8, ptr %0, i64 48
  br label %23

23:                                               ; preds = %.preheader, %23
  store i32 0, ptr %20, align 8
  %24 = load i32, ptr %3, align 8
  %25 = add nsw i32 %24, -1
  %26 = load ptr, ptr %21, align 8
  %27 = load ptr, ptr %22, align 8
  %28 = tail call ptr @cuddUniqueInter(ptr noundef nonnull %0, i32 noundef %25, ptr noundef %26, ptr noundef %27) #20
  %29 = load i32, ptr %20, align 8
  %30 = icmp eq i32 %29, 1
  br i1 %30, label %23, label %Cudd_addIthVar.exit, !llvm.loop !7

Cudd_addIthVar.exit:                              ; preds = %12, %23, %7, %18, %2
  %.0 = phi ptr [ null, %2 ], [ null, %18 ], [ null, %7 ], [ %28, %23 ], [ %15, %12 ]
  ret ptr %.0
}